target datalayout = "e-m:e-p270:32:32-p271:32:32-p272:64:64-i64:64-i128:128-f80:128-n8:16:32:64-S128"
target triple = "x86_64-pc-linux-gnu"

%struct.FLAC__MD5Context = type { [16 x i32], [4 x i32], [2 x i32], %union.FLAC__multibyte, i64 }
%union.FLAC__multibyte = type { ptr }

; Function Attrs: nounwind sspstrong uwtable
define hidden void @FLAC__MD5Init(ptr noundef %0) #0 {
  %2 = alloca ptr, align 8
  store ptr %0, ptr %2, align 8, !tbaa !3
  %3 = load ptr, ptr %2, align 8, !tbaa !3
  %4 = getelementptr inbounds nuw %struct.FLAC__MD5Context, ptr %3, i32 0, i32 1
  %5 = getelementptr inbounds [4 x i32], ptr %4, i64 0, i64 0
  store i32 1732584193, ptr %5, align 8, !tbaa !7
  %6 = load ptr, ptr %2, align 8, !tbaa !3
  %7 = getelementptr inbounds nuw %struct.FLAC__MD5Context, ptr %6, i32 0, i32 1
  %8 = getelementptr inbounds [4 x i32], ptr %7, i64 0, i64 1
  store i32 -271733879, ptr %8, align 4, !tbaa !7
  %9 = load ptr, ptr %2, align 8, !tbaa !3
  %10 = getelementptr inbounds nuw %struct.FLAC__MD5Context, ptr %9, i32 0, i32 1
  %11 = getelementptr inbounds [4 x i32], ptr %10, i64 0, i64 2
  store i32 -1732584194, ptr %11, align 8, !tbaa !7
  %12 = load ptr, ptr %2, align 8, !tbaa !3
  %13 = getelementptr inbounds nuw %struct.FLAC__MD5Context, ptr %12, i32 0, i32 1
  %14 = getelementptr inbounds [4 x i32], ptr %13, i64 0, i64 3
  store i32 271733878, ptr %14, align 4, !tbaa !7
  %15 = load ptr, ptr %2, align 8, !tbaa !3
  %16 = getelementptr inbounds nuw %struct.FLAC__MD5Context, ptr %15, i32 0, i32 2
  %17 = getelementptr inbounds [2 x i32], ptr %16, i64 0, i64 0
  store i32 0, ptr %17, align 8, !tbaa !7
  %18 = load ptr, ptr %2, align 8, !tbaa !3
  %19 = getelementptr inbounds nuw %struct.FLAC__MD5Context, ptr %18, i32 0, i32 2
  %20 = getelementptr inbounds [2 x i32], ptr %19, i64 0, i64 1
  store i32 0, ptr %20, align 4, !tbaa !7
  %21 = load ptr, ptr %2, align 8, !tbaa !3
  %22 = getelementptr inbounds nuw %struct.FLAC__MD5Context, ptr %21, i32 0, i32 3
  store ptr null, ptr %22, align 8, !tbaa !9
  %23 = load ptr, ptr %2, align 8, !tbaa !3
  %24 = getelementptr inbounds nuw %struct.FLAC__MD5Context, ptr %23, i32 0, i32 4
  store i64 0, ptr %24, align 8, !tbaa !10
  ret void
}