; Function Attrs: mustprogress nofree norecurse nosync nounwind sspstrong willreturn memory(argmem: write) uwtable
define hidden void @FLAC__MD5Init(ptr noundef writeonly captures(none) initializes((64, 104)) %0) local_unnamed_addr #0 {
  %2 = getelementptr inbounds nuw i8, ptr %0, i64 64
  store i32 1732584193, ptr %2, align 8, !tbaa !3
  %3 = getelementptr inbounds nuw i8, ptr %0, i64 68
  store i32 -271733879, ptr %3, align 4, !tbaa !3
  %4 = getelementptr inbounds nuw i8, ptr %0, i64 72
  store i32 -1732584194, ptr %4, align 8, !tbaa !3
  %5 = getelementptr inbounds nuw i8, ptr %0, i64 76
  store i32 271733878, ptr %5, align 4, !tbaa !3
  %6 = getelementptr inbounds nuw i8, ptr %0, i64 80
  tail call void @llvm.memset.p0.i64(ptr noundef nonnull align 8 dereferenceable(24) %6, i8 0, i64 24, i1 false)
  ret void
}